; Function Attrs: nounwind uwtable
define dso_local i64 @pg_read_binary_file_all(ptr noundef captures(none) %0) local_unnamed_addr #0 {
  %2 = getelementptr inbounds nuw i8, ptr %0, i64 32
  %3 = load i64, ptr %2, align 8
  %4 = inttoptr i64 %3 to ptr
  %5 = tail call ptr @pg_detoast_datum_packed(ptr noundef %4) #9
  %6 = tail call fastcc ptr @convert_and_check_filename(ptr noundef %5)
  %7 = tail call fastcc ptr @read_binary_file(ptr noundef %6, i64 noundef 0, i64 noundef -1, i1 noundef zeroext false)
  %.not = icmp eq ptr %7, null
  br i1 %.not, label %8, label %10

8:                                                ; preds = %1
  %9 = getelementptr inbounds nuw i8, ptr %0, i64 28
  store i8 1, ptr %9, align 4
  br label %12

10:                                               ; preds = %1
  %11 = ptrtoint ptr %7 to i64
  br label %12

12:                                               ; preds = %10, %8
  %.0 = phi i64 [ %11, %10 ], [ 0, %8 ]
  ret i64 %.0
}